; Function Attrs: mustprogress noreturn uwtable
define internal fastcc void @_ZN6google8protobuf12_GLOBAL__N_126ReportReflectionUsageErrorEPKNS0_10DescriptorEPKNS0_15FieldDescriptorEPKcS9_(ptr nocapture noundef readonly %descriptor, ptr nocapture noundef readonly %field, ptr noundef %method, ptr noundef %description) unnamed_addr #14 personality ptr @__gxx_personality_v0 {
entry:
  %view.i = alloca %"class.absl::lts_20230802::log_internal::LogMessage::OstreamView", align 8
  %description.addr = alloca ptr, align 8
  %ref.tmp1 = alloca %"class.absl::lts_20230802::log_internal::LogMessageFatal", align 8
  store ptr %description, ptr %description.addr, align 8
  call void @_ZN4absl12lts_2023080212log_internal15LogMessageFatalC1EPKci(ptr noundef nonnull align 8 dereferenceable(16) %ref.tmp1, ptr noundef nonnull @.str, i32 noundef 176) #31
  invoke void @_ZN4absl12lts_2023080212log_internal10LogMessage19CopyToEncodedBufferILNS2_10StringTypeE0EEEvSt17basic_string_viewIcSt11char_traitsIcEE(ptr noundef nonnull align 8 dereferenceable(16) %ref.tmp1, i64 86, ptr nonnull @.str.106)
          to label %invoke.cont unwind label %lpad

invoke.cont:                                      ; preds = %entry
  call void @llvm.lifetime.start.p0(i64 120, ptr nonnull %view.i)
  %data_.i = getelementptr inbounds i8, ptr %ref.tmp1, i64 8
  %0 = load ptr, ptr %data_.i, align 8
  invoke void @_ZN4absl12lts_2023080212log_internal10LogMessage11OstreamViewC1ERNS2_14LogMessageDataE(ptr noundef nonnull align 8 dereferenceable(120) %view.i, ptr noundef nonnull align 1 %0)
          to label %.noexc unwind label %lpad

.noexc:                                           ; preds = %invoke.cont
  %call2.i = invoke noundef nonnull align 8 dereferenceable(8) ptr @_ZN4absl12lts_2023080212log_internal10LogMessage11OstreamView6streamEv(ptr noundef nonnull align 8 dereferenceable(120) %view.i)
          to label %invoke.cont.i unwind label %lpad.i

invoke.cont.i:                                    ; preds = %.noexc
  %tobool.not.i.i = icmp eq ptr %method, null
  %spec.select.i.i = select i1 %tobool.not.i.i, ptr @_ZN4absl12lts_2023080212log_internal9kCharNullE, ptr %method
  %call6.i = invoke noundef nonnull align 8 dereferenceable(8) ptr @_ZStlsISt11char_traitsIcEERSt13basic_ostreamIcT_ES5_PKc(ptr noundef nonnull align 8 dereferenceable(8) %call2.i, ptr noundef nonnull %spec.select.i.i)
          to label %invoke.cont3 unwind label %lpad.i

lpad.i:                                           ; preds = %invoke.cont.i, %.noexc
  %1 = landingpad { ptr, i32 }
          cleanup
  call void @_ZN4absl12lts_2023080212log_internal10LogMessage11OstreamViewD1Ev(ptr noundef nonnull align 8 dereferenceable(120) %view.i) #29
  br label %lpad.body

invoke.cont3:                                     ; preds = %invoke.cont.i
  call void @_ZN4absl12lts_2023080212log_internal10LogMessage11OstreamViewD1Ev(ptr noundef nonnull align 8 dereferenceable(120) %view.i) #29
  call void @llvm.lifetime.end.p0(i64 120, ptr nonnull %view.i)
  invoke void @_ZN4absl12lts_2023080212log_internal10LogMessage19CopyToEncodedBufferILNS2_10StringTypeE0EEEvSt17basic_string_viewIcSt11char_traitsIcEE(ptr noundef nonnull align 8 dereferenceable(16) %ref.tmp1, i64 17, ptr nonnull @.str.107)
          to label %invoke.cont5 unwind label %lpad

invoke.cont5:                                     ; preds = %invoke.cont3
  %all_names_.i = getelementptr inbounds i8, ptr %descriptor, i64 8
  %2 = load ptr, ptr %all_names_.i, align 8
  %arrayidx.i = getelementptr inbounds i8, ptr %2, i64 32
  %call9 = invoke noundef nonnull align 8 dereferenceable(16) ptr @_ZN4absl12lts_2023080212log_internal10LogMessagelsERKNSt7__cxx1112basic_stringIcSt11char_traitsIcESaIcEEE(ptr noundef nonnull align 8 dereferenceable(16) %ref.tmp1, ptr noundef nonnull align 8 dereferenceable(32) %arrayidx.i)
          to label %invoke.cont8 unwind label %lpad

invoke.cont8:                                     ; preds = %invoke.cont5
  invoke void @_ZN4absl12lts_2023080212log_internal10LogMessage19CopyToEncodedBufferILNS2_10StringTypeE0EEEvSt17basic_string_viewIcSt11char_traitsIcEE(ptr noundef nonnull align 8 dereferenceable(16) %call9, i64 17, ptr nonnull @.str.108)
          to label %invoke.cont10 unwind label %lpad

invoke.cont10:                                    ; preds = %invoke.cont8
  %all_names_.i6 = getelementptr inbounds i8, ptr %field, i64 8
  %3 = load ptr, ptr %all_names_.i6, align 8
  %arrayidx.i7 = getelementptr inbounds i8, ptr %3, i64 32
  %call15 = invoke noundef nonnull align 8 dereferenceable(16) ptr @_ZN4absl12lts_2023080212log_internal10LogMessagelsERKNSt7__cxx1112basic_stringIcSt11char_traitsIcESaIcEEE(ptr noundef nonnull align 8 dereferenceable(16) %call9, ptr noundef nonnull align 8 dereferenceable(32) %arrayidx.i7)
          to label %invoke.cont14 unwind label %lpad

invoke.cont14:                                    ; preds = %invoke.cont10
  invoke void @_ZN4absl12lts_2023080212log_internal10LogMessage19CopyToEncodedBufferILNS2_10StringTypeE0EEEvSt17basic_string_viewIcSt11char_traitsIcEE(ptr noundef nonnull align 8 dereferenceable(16) %call15, i64 17, ptr nonnull @.str.109)
          to label %invoke.cont16 unwind label %lpad

invoke.cont16:                                    ; preds = %invoke.cont14
  %call19 = invoke noundef nonnull align 8 dereferenceable(16) ptr @_ZN4absl12lts_2023080212log_internal10LogMessagelsIPKcTnNSt9enable_ifIXntsr16strings_internal16HasAbslStringifyIT_EE5valueEiE4typeELi0EEERS2_RKS7_(ptr noundef nonnull align 8 dereferenceable(16) %call15, ptr noundef nonnull align 8 dereferenceable(8) %description.addr)
          to label %invoke.cont18 unwind label %lpad

invoke.cont18:                                    ; preds = %invoke.cont16
  call void @_ZN4absl12lts_2023080212log_internal15LogMessageFatalD1Ev(ptr noundef nonnull align 8 dereferenceable(16) %ref.tmp1) #32
  unreachable

lpad:                                             ; preds = %invoke.cont14, %invoke.cont8, %invoke.cont3, %invoke.cont, %entry, %invoke.cont16, %invoke.cont10, %invoke.cont5
  %4 = landingpad { ptr, i32 }
          cleanup
  br label %lpad.body

lpad.body:                                        ; preds = %lpad.i, %lpad
  call void @_ZN4absl12lts_2023080212log_internal15LogMessageFatalD1Ev(ptr noundef nonnull align 8 dereferenceable(16) %ref.tmp1) #32
  unreachable
}